target datalayout = "e-m:e-p270:32:32-p271:32:32-p272:64:64-i64:64-i128:128-f80:128-n8:16:32:64-S128"
target triple = "x86_64-pc-linux-gnu"

; Function Attrs: nounwind uwtable
define i32 @pmix_bfrop_base_copy_persist(ptr noundef %0, ptr noundef %1, i16 noundef zeroext %2) #0 {
  %4 = alloca i32, align 4
  %5 = alloca ptr, align 8
  %6 = alloca ptr, align 8
  %7 = alloca i16, align 2
  store ptr %0, ptr %5, align 8, !tbaa !45
  store ptr %1, ptr %6, align 8, !tbaa !33
  store i16 %2, ptr %7, align 2, !tbaa !9
  %8 = call noalias ptr @malloc(i64 noundef 1) #12
  %9 = load ptr, ptr %5, align 8, !tbaa !45
  store ptr %8, ptr %9, align 8, !tbaa !33
  %10 = load ptr, ptr %5, align 8, !tbaa !45
  %11 = load ptr, ptr %10, align 8, !tbaa !33
  %12 = icmp eq ptr null, %11
  br i1 %12, label %13, label %14

13:                                               ; preds = %3
  store i32 -29, ptr %4, align 4
  br label %18

14:                                               ; preds = %3
  %15 = load ptr, ptr %5, align 8, !tbaa !45
  %16 = load ptr, ptr %15, align 8, !tbaa !33
  %17 = load ptr, ptr %6, align 8, !tbaa !33
  call void @llvm.memcpy.p0.p0.i64(ptr align 1 %16, ptr align 1 %17, i64 1, i1 false)
  store i32 0, ptr %4, align 4
  br label %18

18:                                               ; preds = %14, %13
  %19 = load i32, ptr %4, align 4
  ret i32 %19
}