; Function Attrs: mustprogress nofree nounwind willreturn memory(write, argmem: readwrite, inaccessiblemem: readwrite) uwtable
define range(i32 -29, 1) i32 @pmix_bfrop_base_copy_persist(ptr noundef writeonly captures(none) initializes((0, 8)) %0, ptr noundef readonly captures(none) %1, i16 noundef zeroext %2) local_unnamed_addr #10 {
  %4 = tail call noalias dereferenceable_or_null(1) ptr @malloc(i64 noundef 1) #25
  store ptr %4, ptr %0, align 8, !tbaa !40
  %5 = icmp eq ptr %4, null
  br i1 %5, label %8, label %6

6:                                                ; preds = %3
  %7 = load i8, ptr %1, align 1
  store i8 %7, ptr %4, align 1
  br label %8

8:                                                ; preds = %3, %6
  %.0 = phi i32 [ 0, %6 ], [ -29, %3 ]
  ret i32 %.0
}